; ModuleID = '9/673.c'
source_filename = "9/673.c"
target datalayout = "e-m:e-p270:32:32-p271:32:32-p272:64:64-i64:64-f80:128-n8:16:32:64-S128"
target triple = "x86_64-pc-linux-gnu"

%struct.patient = type { [10 x i8], i32 }

@.str = private unnamed_addr constant [4 x i8] c"%d\0A\00", align 1
@.str.1 = private unnamed_addr constant [3 x i8] c"%s\00", align 1
@.str.2 = private unnamed_addr constant [3 x i8] c"%d\00", align 1
@.str.3 = private unnamed_addr constant [4 x i8] c"%s\0A\00", align 1

; Function Attrs: noinline nounwind uwtable
define dso_local void @main() #0 {
  %1 = alloca i32, align 4
  %2 = alloca [100 x %struct.patient], align 16
  %3 = alloca [100 x %struct.patient], align 16
  %4 = alloca [100 x %struct.patient], align 16
  %5 = alloca %struct.patient, align 4
  %6 = alloca i32, align 4
  %7 = alloca i32, align 4
  %8 = alloca i32, align 4
  %9 = alloca i32, align 4
  %10 = call i32 (i8*, ...) @__isoc99_scanf(i8* getelementptr inbounds ([4 x i8], [4 x i8]* @.str, i64 0, i64 0), i32* %1)
  store i32 0, i32* %7, align 4
  store i32 0, i32* %8, align 4
  store i32 0, i32* %6, align 4
  br label %11

11:                                               ; preds = %54, %0
  %12 = load i32, i32* %6, align 4
  %13 = load i32, i32* %1, align 4
  %14 = icmp slt i32 %12, %13
  br i1 %14, label %15, label %57

15:                                               ; preds = %11
  %16 = load i32, i32* %6, align 4
  %17 = sext i32 %16 to i64
  %18 = getelementptr inbounds [100 x %struct.patient], [100 x %struct.patient]* %2, i64 0, i64 %17
  %19 = getelementptr inbounds %struct.patient, %struct.patient* %18, i32 0, i32 0
  %20 = getelementptr inbounds [10 x i8], [10 x i8]* %19, i64 0, i64 0
  %21 = call i32 (i8*, ...) @__isoc99_scanf(i8* getelementptr inbounds ([3 x i8], [3 x i8]* @.str.1, i64 0, i64 0), i8* %20)
  %22 = load i32, i32* %6, align 4
  %23 = sext i32 %22 to i64
  %24 = getelementptr inbounds [100 x %struct.patient], [100 x %struct.patient]* %2, i64 0, i64 %23
  %25 = getelementptr inbounds %struct.patient, %struct.patient* %24, i32 0, i32 1
  %26 = call i32 (i8*, ...) @__isoc99_scanf(i8* getelementptr inbounds ([3 x i8], [3 x i8]* @.str.2, i64 0, i64 0), i32* %25)
  %27 = load i32, i32* %6, align 4
  %28 = sext i32 %27 to i64
  %29 = getelementptr inbounds [100 x %struct.patient], [100 x %struct.patient]* %2, i64 0, i64 %28
  %30 = getelementptr inbounds %struct.patient, %struct.patient* %29, i32 0, i32 1
  %31 = load i32, i32* %30, align 4
  %32 = icmp sge i32 %31, 60
  br i1 %32, label %33, label %43

33:                                               ; preds = %15
  %34 = load i32, i32* %7, align 4
  %35 = add nsw i32 %34, 1
  store i32 %35, i32* %7, align 4
  %36 = sext i32 %34 to i64
  %37 = getelementptr inbounds [100 x %struct.patient], [100 x %struct.patient]* %3, i64 0, i64 %36
  %38 = load i32, i32* %6, align 4
  %39 = sext i32 %38 to i64
  %40 = getelementptr inbounds [100 x %struct.patient], [100 x %struct.patient]* %2, i64 0, i64 %39
  %41 = bitcast %struct.patient* %37 to i8*
  %42 = bitcast %struct.patient* %40 to i8*
  call void @llvm.memcpy.p0i8.p0i8.i64(i8* align 16 %41, i8* align 16 %42, i64 16, i1 false)
  br label %53

43:                                               ; preds = %15
  %44 = load i32, i32* %8, align 4
  %45 = add nsw i32 %44, 1
  store i32 %45, i32* %8, align 4
  %46 = sext i32 %44 to i64
  %47 = getelementptr inbounds [100 x %struct.patient], [100 x %struct.patient]* %4, i64 0, i64 %46
  %48 = load i32, i32* %6, align 4
  %49 = sext i32 %48 to i64
  %50 = getelementptr inbounds [100 x %struct.patient], [100 x %struct.patient]* %2, i64 0, i64 %49
  %51 = bitcast %struct.patient* %47 to i8*
  %52 = bitcast %struct.patient* %50 to i8*
  call void @llvm.memcpy.p0i8.p0i8.i64(i8* align 16 %51, i8* align 16 %52, i64 16, i1 false)
  br label %53

53:                                               ; preds = %43, %33
  br label %54

54:                                               ; preds = %53
  %55 = load i32, i32* %6, align 4
  %56 = add nsw i32 %55, 1
  store i32 %56, i32* %6, align 4
  br label %11

57:                                               ; preds = %11
  store i32 0, i32* %6, align 4
  br label %58

58:                                               ; preds = %105, %57
  %59 = load i32, i32* %6, align 4
  %60 = load i32, i32* %7, align 4
  %61 = icmp slt i32 %59, %60
  br i1 %61, label %62, label %108

62:                                               ; preds = %58
  %63 = load i32, i32* %6, align 4
  %64 = add nsw i32 %63, 1
  store i32 %64, i32* %9, align 4
  br label %65

65:                                               ; preds = %101, %62
  %66 = load i32, i32* %9, align 4
  %67 = load i32, i32* %7, align 4
  %68 = icmp slt i32 %66, %67
  br i1 %68, label %69, label %104

69:                                               ; preds = %65
  %70 = load i32, i32* %9, align 4
  %71 = sext i32 %70 to i64
  %72 = getelementptr inbounds [100 x %struct.patient], [100 x %struct.patient]* %3, i64 0, i64 %71
  %73 = getelementptr inbounds %struct.patient, %struct.patient* %72, i32 0, i32 1
  %74 = load i32, i32* %73, align 4
  %75 = load i32, i32* %6, align 4
  %76 = sext i32 %75 to i64
  %77 = getelementptr inbounds [100 x %struct.patient], [100 x %struct.patient]* %3, i64 0, i64 %76
  %78 = getelementptr inbounds %struct.patient, %struct.patient* %77, i32 0, i32 1
  %79 = load i32, i32* %78, align 4
  %80 = icmp sgt i32 %74, %79
  br i1 %80, label %81, label %100

81:                                               ; preds = %69
  %82 = load i32, i32* %6, align 4
  %83 = sext i32 %82 to i64
  %84 = getelementptr inbounds [100 x %struct.patient], [100 x %struct.patient]* %3, i64 0, i64 %83
  %85 = bitcast %struct.patient* %5 to i8*
  %86 = bitcast %struct.patient* %84 to i8*
  call void @llvm.memcpy.p0i8.p0i8.i64(i8* align 4 %85, i8* align 16 %86, i64 16, i1 false)
  %87 = load i32, i32* %6, align 4
  %88 = sext i32 %87 to i64
  %89 = getelementptr inbounds [100 x %struct.patient], [100 x %struct.patient]* %3, i64 0, i64 %88
  %90 = load i32, i32* %9, align 4
  %91 = sext i32 %90 to i64
  %92 = getelementptr inbounds [100 x %struct.patient], [100 x %struct.patient]* %3, i64 0, i64 %91
  %93 = bitcast %struct.patient* %89 to i8*
  %94 = bitcast %struct.patient* %92 to i8*
  call void @llvm.memcpy.p0i8.p0i8.i64(i8* align 16 %93, i8* align 16 %94, i64 16, i1 false)
  %95 = load i32, i32* %9, align 4
  %96 = sext i32 %95 to i64
  %97 = getelementptr inbounds [100 x %struct.patient], [100 x %struct.patient]* %3, i64 0, i64 %96
  %98 = bitcast %struct.patient* %97 to i8*
  %99 = bitcast %struct.patient* %5 to i8*
  call void @llvm.memcpy.p0i8.p0i8.i64(i8* align 16 %98, i8* align 4 %99, i64 16, i1 false)
  br label %100

100:                                              ; preds = %81, %69
  br label %101

101:                                              ; preds = %100
  %102 = load i32, i32* %9, align 4
  %103 = add nsw i32 %102, 1
  store i32 %103, i32* %9, align 4
  br label %65

104:                                              ; preds = %65
  br label %105

105:                                              ; preds = %104
  %106 = load i32, i32* %6, align 4
  %107 = add nsw i32 %106, 1
  store i32 %107, i32* %6, align 4
  br label %58

108:                                              ; preds = %58
  store i32 0, i32* %6, align 4
  br label %109

109:                                              ; preds = %156, %108
  %110 = load i32, i32* %6, align 4
  %111 = load i32, i32* %7, align 4
  %112 = icmp slt i32 %110, %111
  br i1 %112, label %113, label %159

113:                                              ; preds = %109
  %114 = load i32, i32* %6, align 4
  %115 = sext i32 %114 to i64
  %116 = getelementptr inbounds [100 x %struct.patient], [100 x %struct.patient]* %3, i64 0, i64 %115
  %117 = getelementptr inbounds %struct.patient, %struct.patient* %116, i32 0, i32 1
  %118 = load i32, i32* %117, align 4
  %119 = load i32, i32* %6, align 4
  %120 = sub nsw i32 %119, 1
  %121 = sext i32 %120 to i64
  %122 = getelementptr inbounds [100 x %struct.patient], [100 x %struct.patient]* %3, i64 0, i64 %121
  %123 = getelementptr inbounds %struct.patient, %struct.patient* %122, i32 0, i32 1
  %124 = load i32, i32* %123, align 4
  %125 = icmp ne i32 %118, %124
  br i1 %125, label %126, label %155

126:                                              ; preds = %113
  store i32 0, i32* %9, align 4
  br label %127

127:                                              ; preds = %151, %126
  %128 = load i32, i32* %9, align 4
  %129 = load i32, i32* %1, align 4
  %130 = icmp slt i32 %128, %129
  br i1 %130, label %131, label %154

131:                                              ; preds = %127
  %132 = load i32, i32* %9, align 4
  %133 = sext i32 %132 to i64
  %134 = getelementptr inbounds [100 x %struct.patient], [100 x %struct.patient]* %2, i64 0, i64 %133
  %135 = getelementptr inbounds %struct.patient, %struct.patient* %134, i32 0, i32 1
  %136 = load i32, i32* %135, align 4
  %137 = load i32, i32* %6, align 4
  %138 = sext i32 %137 to i64
  %139 = getelementptr inbounds [100 x %struct.patient], [100 x %struct.patient]* %3, i64 0, i64 %138
  %140 = getelementptr inbounds %struct.patient, %struct.patient* %139, i32 0, i32 1
  %141 = load i32, i32* %140, align 4
  %142 = icmp eq i32 %136, %141
  br i1 %142, label %143, label %150

143:                                              ; preds = %131
  %144 = load i32, i32* %9, align 4
  %145 = sext i32 %144 to i64
  %146 = getelementptr inbounds [100 x %struct.patient], [100 x %struct.patient]* %2, i64 0, i64 %145
  %147 = getelementptr inbounds %struct.patient, %struct.patient* %146, i32 0, i32 0
  %148 = getelementptr inbounds [10 x i8], [10 x i8]* %147, i64 0, i64 0
  %149 = call i32 (i8*, ...) @printf(i8* getelementptr inbounds ([4 x i8], [4 x i8]* @.str.3, i64 0, i64 0), i8* %148)
  br label %150

150:                                              ; preds = %143, %131
  br label %151

151:                                              ; preds = %150
  %152 = load i32, i32* %9, align 4
  %153 = add nsw i32 %152, 1
  store i32 %153, i32* %9, align 4
  br label %127

154:                                              ; preds = %127
  br label %155

155:                                              ; preds = %154, %113
  br label %156

156:                                              ; preds = %155
  %157 = load i32, i32* %6, align 4
  %158 = add nsw i32 %157, 1
  store i32 %158, i32* %6, align 4
  br label %109

159:                                              ; preds = %109
  store i32 0, i32* %6, align 4
  br label %160

160:                                              ; preds = %171, %159
  %161 = load i32, i32* %6, align 4
  %162 = load i32, i32* %8, align 4
  %163 = icmp slt i32 %161, %162
  br i1 %163, label %164, label %174

164:                                              ; preds = %160
  %165 = load i32, i32* %6, align 4
  %166 = sext i32 %165 to i64
  %167 = getelementptr inbounds [100 x %struct.patient], [100 x %struct.patient]* %4, i64 0, i64 %166
  %168 = getelementptr inbounds %struct.patient, %struct.patient* %167, i32 0, i32 0
  %169 = getelementptr inbounds [10 x i8], [10 x i8]* %168, i64 0, i64 0
  %170 = call i32 (i8*, ...) @printf(i8* getelementptr inbounds ([4 x i8], [4 x i8]* @.str.3, i64 0, i64 0), i8* %169)
  br label %171

171:                                              ; preds = %164
  %172 = load i32, i32* %6, align 4
  %173 = add nsw i32 %172, 1
  store i32 %173, i32* %6, align 4
  br label %160

174:                                              ; preds = %160
  ret void
}

declare dso_local i32 @__isoc99_scanf(i8*, ...) #1

; Function Attrs: argmemonly nounwind willreturn
declare void @llvm.memcpy.p0i8.p0i8.i64(i8* noalias nocapture writeonly, i8* noalias nocapture readonly, i64, i1 immarg) #2

declare dso_local i32 @printf(i8*, ...) #1


!llvm.module.flags = !{!0}
!llvm.ident = !{!1}

!0 = !{i32 1, !"wchar_size", i32 4}
!1 = !{!"clang version 10.0.0-4ubuntu1 "}
